; Function Attrs: mustprogress uwtable
define dso_local void @_ZN4absl15EnableLogPrefixEb(i1 noundef zeroext %0) local_unnamed_addr #1 personality ptr @__gxx_personality_v0 {
  %2 = zext i1 %0 to i8
  store atomic i8 %2, ptr @_ZN4absl12_GLOBAL__N_118prepend_log_prefixE.0 release, align 1
  %3 = load atomic i64, ptr @_ZN4absl12_GLOBAL__N_124logging_globals_listenerE acquire, align 8
  %4 = icmp eq i64 %3, ptrtoint (ptr @_ZN4absl13base_internal10AtomicHookIPFvvEE13DummyFunctionEv to i64)
  %.not2.i = icmp eq i64 %3, 0
  %.not.i = or i1 %4, %.not2.i
  br i1 %.not.i, label %_ZN4absl12_GLOBAL__N_129TriggerLoggingGlobalsListenerEv.exit, label %5

5:                                                ; preds = %1
  %.0.i.i.i.i.i = inttoptr i64 %3 to ptr
  tail call void %.0.i.i.i.i.i()
  br label %_ZN4absl12_GLOBAL__N_129TriggerLoggingGlobalsListenerEv.exit

_ZN4absl12_GLOBAL__N_129TriggerLoggingGlobalsListenerEv.exit: ; preds = %1, %5
  ret void
}